; Function Attrs: mustprogress nounwind uwtable
define dso_local noundef zeroext i1 @_ZN5clang5arcmt12FileRemapper11flushToDiskEN4llvm9StringRefERNS_17DiagnosticsEngineE(ptr noundef nonnull align 8 dereferenceable(56) %0, ptr %1, i64 %2, ptr noundef nonnull align 8 dereferenceable(1304) %3) local_unnamed_addr #0 align 2 {
  %5 = alloca %"class.llvm::Twine", align 8
  %6 = alloca %"class.llvm::Twine", align 8
  %7 = alloca %"class.std::__cxx11::basic_string", align 8
  %8 = getelementptr inbounds nuw i8, ptr %5, i64 32
  store i8 5, ptr %8, align 8
  %9 = getelementptr inbounds nuw i8, ptr %5, i64 33
  store i8 1, ptr %9, align 1
  store ptr %1, ptr %5, align 8
  %10 = getelementptr inbounds nuw i8, ptr %5, i64 8
  store i64 %2, ptr %10, align 8
  %11 = call { i32, ptr } @_ZN4llvm3sys2fs16create_directoryERKNS_5TwineEbNS1_5permsE(ptr noundef nonnull align 8 dereferenceable(34) %5, i1 noundef zeroext true, i32 noundef 504) #17
  %12 = extractvalue { i32, ptr } %11, 0
  %.not = icmp eq i32 %12, 0
  br i1 %.not, label %19, label %13

13:                                               ; preds = %4
  %14 = getelementptr inbounds nuw i8, ptr %6, i64 32
  store i8 3, ptr %14, align 8, !alias.scope !66
  %15 = getelementptr inbounds nuw i8, ptr %6, i64 33
  store i8 5, ptr %15, align 1, !alias.scope !66
  store ptr @.str.8, ptr %6, align 8, !alias.scope !66
  %16 = getelementptr inbounds nuw i8, ptr %6, i64 16
  store ptr %1, ptr %16, align 8, !alias.scope !66
  %17 = getelementptr inbounds nuw i8, ptr %6, i64 24
  store i64 %2, ptr %17, align 8, !alias.scope !66
  %18 = call noundef zeroext i1 @_ZN5clang5arcmt12FileRemapper6reportERKN4llvm5TwineERNS_17DiagnosticsEngineE(ptr nonnull align 8 poison, ptr noundef nonnull align 8 dereferenceable(34) %6, ptr noundef nonnull align 8 dereferenceable(1304) %3)
  br label %23

19:                                               ; preds = %4
  call void @_ZN5clang5arcmt12FileRemapper16getRemapInfoFileB5cxx11EN4llvm9StringRefE(ptr dead_on_unwind nonnull writable sret(%"class.std::__cxx11::basic_string") align 8 %7, ptr nonnull align 8 poison, ptr %1, i64 %2)
  %20 = call noundef ptr @_ZNKSt7__cxx1112basic_stringIcSt11char_traitsIcESaIcEE4dataEv(ptr noundef nonnull align 8 dereferenceable(32) %7) #17
  %21 = call noundef i64 @_ZNKSt7__cxx1112basic_stringIcSt11char_traitsIcESaIcEE6lengthEv(ptr noundef nonnull align 8 dereferenceable(32) %7) #17
  %22 = call noundef zeroext i1 @_ZN5clang5arcmt12FileRemapper11flushToFileEN4llvm9StringRefERNS_17DiagnosticsEngineE(ptr noundef nonnull align 8 dereferenceable(56) %0, ptr %20, i64 %21, ptr noundef nonnull align 8 dereferenceable(1304) %3)
  call void @_ZNSt7__cxx1112basic_stringIcSt11char_traitsIcESaIcEED1Ev(ptr noundef nonnull align 8 dereferenceable(32) %7) #17
  br label %23

23:                                               ; preds = %19, %13
  %.0 = phi i1 [ true, %13 ], [ %22, %19 ]
  ret i1 %.0
}